target datalayout = "e-m:e-p270:32:32-p271:32:32-p272:64:64-i64:64-i128:128-f80:128-n8:16:32:64-S128"
target triple = "x86_64-pc-linux-gnu"

%"class.gmx::PullElement" = type { %"class.gmx::ISimulatorElement", %"class.gmx::ICheckpointHelperClient", i8, i32, %"class.std::__cxx11::basic_string", i8, ptr, ptr, ptr, ptr }
%"class.gmx::ISimulatorElement" = type { ptr }
%"class.gmx::ICheckpointHelperClient" = type { ptr }
%"class.std::__cxx11::basic_string" = type { %"struct.std::__cxx11::basic_string<char>::_Alloc_hider", i64, %union.anon }
%"struct.std::__cxx11::basic_string<char>::_Alloc_hider" = type { ptr }
%union.anon = type { i64, [8 x i8] }
%"class.gmx::ArrayRef" = type { %"struct.gmx::ArrayRefIter", %"struct.gmx::ArrayRefIter" }
%"struct.gmx::ArrayRefIter" = type { ptr }
%"class.gmx::ArrayRef.17" = type { %"struct.gmx::ArrayRefIter.18", %"struct.gmx::ArrayRefIter.18" }
%"struct.gmx::ArrayRefIter.18" = type { ptr }
%"class.gmx::ArrayRefWithPadding" = type { ptr, ptr, ptr }
%"class.std::optional.82" = type { %"struct.std::_Optional_base.83" }
%"struct.std::_Optional_base.83" = type { %"struct.std::_Optional_payload.85" }
%"struct.std::_Optional_payload.85" = type { %"struct.std::_Optional_payload_base.base.90", [7 x i8] }
%"struct.std::_Optional_payload_base.base.90" = type <{ %"union.std::_Optional_payload_base<gmx::ArrayRef<double>>::_Storage", i8 }>
%"union.std::_Optional_payload_base<gmx::ArrayRef<double>>::_Storage" = type { %"class.gmx::ArrayRef.87" }
%"class.gmx::ArrayRef.87" = type { %"struct.gmx::ArrayRefIter.88", %"struct.gmx::ArrayRefIter.88" }
%"struct.gmx::ArrayRefIter.88" = type { ptr }
%struct.t_mdatoms = type { float, float, float, i32, i32, i8, i8, i8, i32, i32, i32, i32, i8, %"class.std::vector.22", %"class.std::vector.22", %"class.std::vector.22", %"class.gmx::PaddedVector.27", %"class.std::vector.32", %"class.gmx::ArrayRef.37", %"class.gmx::ArrayRef.37", %"class.std::vector.22", %"class.std::vector.22", %"class.std::vector.22", %"class.std::vector.22", %"class.std::vector.22", %"class.std::vector.22", %"class.std::vector.40", %"class.std::vector.45", %"class.std::vector.45", %"class.std::vector.50", %"class.std::vector.55", %"class.std::vector.55", %"class.std::vector.55", %"class.std::vector.55", %"class.std::vector.55", %"class.std::vector.55", %"class.std::vector.55", %"class.std::vector.55", i32, float }
%"class.gmx::PaddedVector.27" = type { %"class.std::vector.28", %"class.__gnu_cxx::__normal_iterator.31" }
%"class.std::vector.28" = type { %"struct.std::_Vector_base.29" }
%"struct.std::_Vector_base.29" = type { %"struct.std::_Vector_base<float, gmx::Allocator<float, gmx::AlignedAllocationPolicy>>::_Vector_impl" }
%"struct.std::_Vector_base<float, gmx::Allocator<float, gmx::AlignedAllocationPolicy>>::_Vector_impl" = type { %"struct.std::_Vector_base<float, gmx::Allocator<float, gmx::AlignedAllocationPolicy>>::_Vector_impl_data" }
%"struct.std::_Vector_base<float, gmx::Allocator<float, gmx::AlignedAllocationPolicy>>::_Vector_impl_data" = type { ptr, ptr, ptr }
%"class.__gnu_cxx::__normal_iterator.31" = type { ptr }
%"class.std::vector.32" = type { %"struct.std::_Vector_base.33" }
%"struct.std::_Vector_base.33" = type { %"struct.std::_Vector_base<gmx::BasicVector<float>, std::allocator<gmx::BasicVector<float>>>::_Vector_impl" }
%"struct.std::_Vector_base<gmx::BasicVector<float>, std::allocator<gmx::BasicVector<float>>>::_Vector_impl" = type { %"struct.std::_Vector_base<gmx::BasicVector<float>, std::allocator<gmx::BasicVector<float>>>::_Vector_impl_data" }
%"struct.std::_Vector_base<gmx::BasicVector<float>, std::allocator<gmx::BasicVector<float>>>::_Vector_impl_data" = type { ptr, ptr, ptr }
%"class.gmx::ArrayRef.37" = type { %"struct.gmx::ArrayRefIter.38", %"struct.gmx::ArrayRefIter.38" }
%"struct.gmx::ArrayRefIter.38" = type { ptr }
%"class.std::vector.22" = type { %"struct.std::_Vector_base.23" }
%"struct.std::_Vector_base.23" = type { %"struct.std::_Vector_base<float, std::allocator<float>>::_Vector_impl" }
%"struct.std::_Vector_base<float, std::allocator<float>>::_Vector_impl" = type { %"struct.std::_Vector_base<float, std::allocator<float>>::_Vector_impl_data" }
%"struct.std::_Vector_base<float, std::allocator<float>>::_Vector_impl_data" = type { ptr, ptr, ptr }
%"class.std::vector.40" = type { %"struct.std::_Vector_base.41" }
%"struct.std::_Vector_base.41" = type { %"struct.std::_Vector_base<gmx::BoolType, std::allocator<gmx::BoolType>>::_Vector_impl" }
%"struct.std::_Vector_base<gmx::BoolType, std::allocator<gmx::BoolType>>::_Vector_impl" = type { %"struct.std::_Vector_base<gmx::BoolType, std::allocator<gmx::BoolType>>::_Vector_impl_data" }
%"struct.std::_Vector_base<gmx::BoolType, std::allocator<gmx::BoolType>>::_Vector_impl_data" = type { ptr, ptr, ptr }
%"class.std::vector.45" = type { %"struct.std::_Vector_base.46" }
%"struct.std::_Vector_base.46" = type { %"struct.std::_Vector_base<int, std::allocator<int>>::_Vector_impl" }
%"struct.std::_Vector_base<int, std::allocator<int>>::_Vector_impl" = type { %"struct.std::_Vector_base<int, std::allocator<int>>::_Vector_impl_data" }
%"struct.std::_Vector_base<int, std::allocator<int>>::_Vector_impl_data" = type { ptr, ptr, ptr }
%"class.std::vector.50" = type { %"struct.std::_Vector_base.51" }
%"struct.std::_Vector_base.51" = type { %"struct.std::_Vector_base<ParticleType, std::allocator<ParticleType>>::_Vector_impl" }
%"struct.std::_Vector_base<ParticleType, std::allocator<ParticleType>>::_Vector_impl" = type { %"struct.std::_Vector_base<ParticleType, std::allocator<ParticleType>>::_Vector_impl_data" }
%"struct.std::_Vector_base<ParticleType, std::allocator<ParticleType>>::_Vector_impl_data" = type { ptr, ptr, ptr }
%"class.std::vector.55" = type { %"struct.std::_Vector_base.56" }
%"struct.std::_Vector_base.56" = type { %"struct.std::_Vector_base<unsigned short, std::allocator<unsigned short>>::_Vector_impl" }
%"struct.std::_Vector_base<unsigned short, std::allocator<unsigned short>>::_Vector_impl" = type { %"struct.std::_Vector_base<unsigned short, std::allocator<unsigned short>>::_Vector_impl_data" }
%"struct.std::_Vector_base<unsigned short, std::allocator<unsigned short>>::_Vector_impl_data" = type { ptr, ptr, ptr }
%"class.gmx::MDAtoms" = type { %"class.std::unique_ptr", %"class.gmx::PaddedVector", %"class.gmx::PaddedVector" }
%"class.std::unique_ptr" = type { %"struct.std::__uniq_ptr_data" }
%"struct.std::__uniq_ptr_data" = type { %"class.std::__uniq_ptr_impl" }
%"class.std::__uniq_ptr_impl" = type { %"class.std::tuple" }
%"class.std::tuple" = type { %"struct.std::_Tuple_impl" }
%"struct.std::_Tuple_impl" = type { %"struct.std::_Head_base.21" }
%"struct.std::_Head_base.21" = type { ptr }
%"class.gmx::PaddedVector" = type { %"class.std::vector", %"class.__gnu_cxx::__normal_iterator" }
%"class.std::vector" = type { %"struct.std::_Vector_base" }
%"struct.std::_Vector_base" = type { %"struct.std::_Vector_base<float, gmx::Allocator<float, gmx::HostAllocationPolicy>>::_Vector_impl" }
%"struct.std::_Vector_base<float, gmx::Allocator<float, gmx::HostAllocationPolicy>>::_Vector_impl" = type { %"class.gmx::Allocator", %"struct.std::_Vector_base<float, gmx::Allocator<float, gmx::HostAllocationPolicy>>::_Vector_impl_data" }
%"class.gmx::Allocator" = type { %"class.gmx::HostAllocationPolicy" }
%"class.gmx::HostAllocationPolicy" = type { i32 }
%"struct.std::_Vector_base<float, gmx::Allocator<float, gmx::HostAllocationPolicy>>::_Vector_impl_data" = type { ptr, ptr, ptr }
%"class.__gnu_cxx::__normal_iterator" = type { ptr }
%"struct.std::_Optional_payload_base.86" = type <{ %"union.std::_Optional_payload_base<gmx::ArrayRef<double>>::_Storage", i8, [7 x i8] }>

; Function Attrs: mustprogress nounwind uwtable
define linkonce_odr noundef nonnull align 8 dereferenceable(8) ptr @_ZNSt10_Head_baseILm0EP9t_mdatomsLb0EE7_M_headERKS2_(ptr noundef nonnull align 8 dereferenceable(8) %0) #1 comdat align 2 {
  %2 = alloca ptr, align 8
  store ptr %0, ptr %2, align 8
  %3 = load ptr, ptr %2, align 8
  %4 = getelementptr inbounds %"struct.std::_Head_base.21", ptr %3, i32 0, i32 0
  ret ptr %4
}

; Function Attrs: mustprogress nounwind uwtable
define linkonce_odr noundef nonnull align 8 dereferenceable(8) ptr @_ZNSt11_Tuple_implILm0EJP9t_mdatomsSt14default_deleteIS0_EEE7_M_headERKS4_(ptr noundef nonnull align 8 dereferenceable(8) %0) #1 comdat align 2 {
  %2 = alloca ptr, align 8
  store ptr %0, ptr %2, align 8
  %3 = load ptr, ptr %2, align 8
  %4 = call noundef nonnull align 8 dereferenceable(8) ptr @_ZNSt10_Head_baseILm0EP9t_mdatomsLb0EE7_M_headERKS2_(ptr noundef nonnull align 8 dereferenceable(8) %3) #15
  ret ptr %4
}

; Function Attrs: mustprogress nounwind uwtable
define linkonce_odr void @_ZNSt22_Optional_payload_baseIN3gmx8ArrayRefIdEEE8_StorageIS2_Lb1EEC2Ev(ptr noundef nonnull align 8 dereferenceable(16) %0) unnamed_addr #1 comdat align 2 {
  %2 = alloca ptr, align 8
  store ptr %0, ptr %2, align 8
  ret void
}

; Function Attrs: mustprogress nounwind uwtable
define linkonce_odr noundef nonnull align 8 dereferenceable(8) ptr @_ZSt12__get_helperILm0EP9t_mdatomsJSt14default_deleteIS0_EEERKT0_RKSt11_Tuple_implIXT_EJS4_DpT1_EE(ptr noundef nonnull align 8 dereferenceable(8) %0) #1 comdat {
  %2 = alloca ptr, align 8
  store ptr %0, ptr %2, align 8
  %3 = load ptr, ptr %2, align 8
  %4 = call noundef nonnull align 8 dereferenceable(8) ptr @_ZNSt11_Tuple_implILm0EJP9t_mdatomsSt14default_deleteIS0_EEE7_M_headERKS4_(ptr noundef nonnull align 8 dereferenceable(8) %3) #15
  ret ptr %4
}

; Function Attrs: mustprogress nounwind uwtable
define linkonce_odr void @_ZNSt22_Optional_payload_baseIN3gmx8ArrayRefIdEEEC2Ev(ptr noundef nonnull align 8 dereferenceable(17) %0) unnamed_addr #1 comdat align 2 {
  %2 = alloca ptr, align 8
  store ptr %0, ptr %2, align 8
  %3 = load ptr, ptr %2, align 8
  %4 = getelementptr inbounds %"struct.std::_Optional_payload_base.86", ptr %3, i32 0, i32 0
  call void @_ZNSt22_Optional_payload_baseIN3gmx8ArrayRefIdEEE8_StorageIS2_Lb1EEC2Ev(ptr noundef nonnull align 8 dereferenceable(16) %4) #15
  %5 = getelementptr inbounds %"struct.std::_Optional_payload_base.86", ptr %3, i32 0, i32 1
  store i8 0, ptr %5, align 8
  ret void
}

; Function Attrs: mustprogress nounwind uwtable
define linkonce_odr noundef nonnull align 8 dereferenceable(8) ptr @_ZSt3getILm0EJP9t_mdatomsSt14default_deleteIS0_EEERKNSt13tuple_elementIXT_ESt5tupleIJDpT0_EEE4typeERKS8_(ptr noundef nonnull align 8 dereferenceable(8) %0) #1 comdat {
  %2 = alloca ptr, align 8
  store ptr %0, ptr %2, align 8
  %3 = load ptr, ptr %2, align 8
  %4 = call noundef nonnull align 8 dereferenceable(8) ptr @_ZSt12__get_helperILm0EP9t_mdatomsJSt14default_deleteIS0_EEERKT0_RKSt11_Tuple_implIXT_EJS4_DpT1_EE(ptr noundef nonnull align 8 dereferenceable(8) %3) #15
  ret ptr %4
}

; Function Attrs: mustprogress nounwind uwtable
define linkonce_odr void @_ZNSt17_Optional_payloadIN3gmx8ArrayRefIdEELb1ELb1ELb1EEC2Ev(ptr noundef nonnull align 8 dereferenceable(17) %0) unnamed_addr #1 comdat align 2 {
  %2 = alloca ptr, align 8
  store ptr %0, ptr %2, align 8
  %3 = load ptr, ptr %2, align 8
  call void @_ZNSt22_Optional_payload_baseIN3gmx8ArrayRefIdEEEC2Ev(ptr noundef nonnull align 8 dereferenceable(17) %3) #15
  ret void
}

; Function Attrs: mustprogress nounwind uwtable
define linkonce_odr void @_ZN3gmx12ArrayRefIterIKNS_11BasicVectorIfEEEC2EPS3_(ptr noundef nonnull align 8 dereferenceable(8) %0, ptr noundef %1) unnamed_addr #1 comdat align 2 {
  %3 = alloca ptr, align 8
  %4 = alloca ptr, align 8
  store ptr %0, ptr %3, align 8
  store ptr %1, ptr %4, align 8
  %5 = load ptr, ptr %3, align 8
  %6 = getelementptr inbounds %"struct.gmx::ArrayRefIter.18", ptr %5, i32 0, i32 0
  %7 = load ptr, ptr %4, align 8
  store ptr %7, ptr %6, align 8
  ret void
}

; Function Attrs: mustprogress nounwind uwtable
define linkonce_odr noundef ptr @_ZNKSt6vectorIfSaIfEE11_M_data_ptrIfEEPT_S4_(ptr noundef nonnull align 8 dereferenceable(24) %0, ptr noundef %1) #1 comdat align 2 {
  %3 = alloca ptr, align 8
  %4 = alloca ptr, align 8
  store ptr %0, ptr %3, align 8
  store ptr %1, ptr %4, align 8
  %5 = load ptr, ptr %4, align 8
  ret ptr %5
}

; Function Attrs: mustprogress nounwind uwtable
define linkonce_odr noundef ptr @_ZNKSt15__uniq_ptr_implI9t_mdatomsSt14default_deleteIS0_EE6_M_ptrEv(ptr noundef nonnull align 8 dereferenceable(8) %0) #1 comdat align 2 {
  %2 = alloca ptr, align 8
  store ptr %0, ptr %2, align 8
  %3 = load ptr, ptr %2, align 8
  %4 = getelementptr inbounds %"class.std::__uniq_ptr_impl", ptr %3, i32 0, i32 0
  %5 = call noundef nonnull align 8 dereferenceable(8) ptr @_ZSt3getILm0EJP9t_mdatomsSt14default_deleteIS0_EEERKNSt13tuple_elementIXT_ESt5tupleIJDpT0_EEE4typeERKS8_(ptr noundef nonnull align 8 dereferenceable(8) %4) #15
  %6 = load ptr, ptr %5, align 8
  ret ptr %6
}

; Function Attrs: mustprogress nounwind uwtable
define linkonce_odr void @_ZNSt14_Optional_baseIN3gmx8ArrayRefIdEELb1ELb1EEC2Ev(ptr noundef nonnull align 8 dereferenceable(24) %0) unnamed_addr #1 comdat align 2 {
  %2 = alloca ptr, align 8
  store ptr %0, ptr %2, align 8
  %3 = load ptr, ptr %2, align 8
  %4 = getelementptr inbounds %"struct.std::_Optional_base.83", ptr %3, i32 0, i32 0
  call void @_ZNSt17_Optional_payloadIN3gmx8ArrayRefIdEELb1ELb1ELb1EEC2Ev(ptr noundef nonnull align 8 dereferenceable(17) %4) #15
  ret void
}

; Function Attrs: mustprogress nounwind uwtable
define linkonce_odr void @_ZN3gmx8ArrayRefIKNS_11BasicVectorIfEEEC2EPS3_S5_(ptr noundef nonnull align 8 dereferenceable(16) %0, ptr noundef %1, ptr noundef %2) unnamed_addr #1 comdat align 2 {
  %4 = alloca ptr, align 8
  %5 = alloca ptr, align 8
  %6 = alloca ptr, align 8
  store ptr %0, ptr %4, align 8
  store ptr %1, ptr %5, align 8
  store ptr %2, ptr %6, align 8
  %7 = load ptr, ptr %4, align 8
  %8 = getelementptr inbounds %"class.gmx::ArrayRef.17", ptr %7, i32 0, i32 0
  %9 = load ptr, ptr %5, align 8
  call void @_ZN3gmx12ArrayRefIterIKNS_11BasicVectorIfEEEC2EPS3_(ptr noundef nonnull align 8 dereferenceable(8) %8, ptr noundef %9) #15
  %10 = getelementptr inbounds %"class.gmx::ArrayRef.17", ptr %7, i32 0, i32 1
  %11 = load ptr, ptr %6, align 8
  call void @_ZN3gmx12ArrayRefIterIKNS_11BasicVectorIfEEEC2EPS3_(ptr noundef nonnull align 8 dereferenceable(8) %10, ptr noundef %11) #15
  ret void
}

; Function Attrs: mustprogress nounwind uwtable
define linkonce_odr noundef i64 @_ZNKSt6vectorIfSaIfEE4sizeEv(ptr noundef nonnull align 8 dereferenceable(24) %0) #1 comdat align 2 {
  %2 = alloca ptr, align 8
  store ptr %0, ptr %2, align 8
  %3 = load ptr, ptr %2, align 8
  %4 = getelementptr inbounds %"struct.std::_Vector_base.23", ptr %3, i32 0, i32 0
  %5 = getelementptr inbounds %"struct.std::_Vector_base<float, std::allocator<float>>::_Vector_impl_data", ptr %4, i32 0, i32 1
  %6 = load ptr, ptr %5, align 8
  %7 = getelementptr inbounds %"struct.std::_Vector_base.23", ptr %3, i32 0, i32 0
  %8 = getelementptr inbounds %"struct.std::_Vector_base<float, std::allocator<float>>::_Vector_impl_data", ptr %7, i32 0, i32 0
  %9 = load ptr, ptr %8, align 8
  %10 = ptrtoint ptr %6 to i64
  %11 = ptrtoint ptr %9 to i64
  %12 = sub i64 %10, %11
  %13 = sdiv exact i64 %12, 4
  ret i64 %13
}

; Function Attrs: mustprogress nounwind uwtable
define linkonce_odr void @_ZN3gmx12ArrayRefIterIKfEC2EPS1_(ptr noundef nonnull align 8 dereferenceable(8) %0, ptr noundef %1) unnamed_addr #1 comdat align 2 {
  %3 = alloca ptr, align 8
  %4 = alloca ptr, align 8
  store ptr %0, ptr %3, align 8
  store ptr %1, ptr %4, align 8
  %5 = load ptr, ptr %3, align 8
  %6 = getelementptr inbounds %"struct.gmx::ArrayRefIter", ptr %5, i32 0, i32 0
  %7 = load ptr, ptr %4, align 8
  store ptr %7, ptr %6, align 8
  ret void
}

; Function Attrs: mustprogress nounwind uwtable
define linkonce_odr noundef ptr @_ZNKSt6vectorIfSaIfEE4dataEv(ptr noundef nonnull align 8 dereferenceable(24) %0) #1 comdat align 2 {
  %2 = alloca ptr, align 8
  store ptr %0, ptr %2, align 8
  %3 = load ptr, ptr %2, align 8
  %4 = getelementptr inbounds %"struct.std::_Vector_base.23", ptr %3, i32 0, i32 0
  %5 = getelementptr inbounds %"struct.std::_Vector_base<float, std::allocator<float>>::_Vector_impl_data", ptr %4, i32 0, i32 0
  %6 = load ptr, ptr %5, align 8
  %7 = call noundef ptr @_ZNKSt6vectorIfSaIfEE11_M_data_ptrIfEEPT_S4_(ptr noundef nonnull align 8 dereferenceable(24) %3, ptr noundef %6) #15
  ret ptr %7
}

; Function Attrs: mustprogress nounwind uwtable
define linkonce_odr noundef ptr @_ZNKSt10unique_ptrI9t_mdatomsSt14default_deleteIS0_EE3getEv(ptr noundef nonnull align 8 dereferenceable(8) %0) #1 comdat align 2 {
  %2 = alloca ptr, align 8
  store ptr %0, ptr %2, align 8
  %3 = load ptr, ptr %2, align 8
  %4 = getelementptr inbounds %"class.std::unique_ptr", ptr %3, i32 0, i32 0
  %5 = call noundef ptr @_ZNKSt15__uniq_ptr_implI9t_mdatomsSt14default_deleteIS0_EE6_M_ptrEv(ptr noundef nonnull align 8 dereferenceable(8) %4) #15
  ret ptr %5
}

; Function Attrs: mustprogress nounwind uwtable
define linkonce_odr void @_ZNSt8optionalIN3gmx8ArrayRefIdEEEC2ESt9nullopt_t(ptr noundef nonnull align 8 dereferenceable(24) %0) unnamed_addr #1 comdat align 2 {
  %2 = alloca ptr, align 8
  store ptr %0, ptr %2, align 8
  %3 = load ptr, ptr %2, align 8
  call void @_ZNSt14_Optional_baseIN3gmx8ArrayRefIdEELb1ELb1EEC2Ev(ptr noundef nonnull align 8 dereferenceable(24) %3) #15
  ret void
}

; Function Attrs: mustprogress uwtable
define linkonce_odr { ptr, ptr } @_ZN3gmx19ArrayRefWithPaddingIKNS_11BasicVectorIfEEE16unpaddedArrayRefEv(ptr noundef nonnull align 8 dereferenceable(24) %0) #0 comdat align 2 {
  %2 = alloca %"class.gmx::ArrayRef.17", align 8
  %3 = alloca ptr, align 8
  store ptr %0, ptr %3, align 8
  %4 = load ptr, ptr %3, align 8
  %5 = getelementptr inbounds %"class.gmx::ArrayRefWithPadding", ptr %4, i32 0, i32 0
  %6 = load ptr, ptr %5, align 8
  %7 = getelementptr inbounds %"class.gmx::ArrayRefWithPadding", ptr %4, i32 0, i32 1
  %8 = load ptr, ptr %7, align 8
  call void @_ZN3gmx8ArrayRefIKNS_11BasicVectorIfEEEC2EPS3_S5_(ptr noundef nonnull align 8 dereferenceable(16) %2, ptr noundef %6, ptr noundef %8)
  %9 = load { ptr, ptr }, ptr %2, align 8
  ret { ptr, ptr } %9
}

; Function Attrs: mustprogress nounwind uwtable
define linkonce_odr void @_ZN3gmx8ArrayRefIKfEC2IRKSt6vectorIfSaIfEEvEEOT_(ptr noundef nonnull align 8 dereferenceable(16) %0, ptr noundef nonnull align 8 dereferenceable(24) %1) unnamed_addr #1 comdat align 2 {
  %3 = alloca ptr, align 8
  %4 = alloca ptr, align 8
  store ptr %0, ptr %3, align 8
  store ptr %1, ptr %4, align 8
  %5 = load ptr, ptr %3, align 8
  %6 = getelementptr inbounds %"class.gmx::ArrayRef", ptr %5, i32 0, i32 0
  %7 = load ptr, ptr %4, align 8
  %8 = call noundef ptr @_ZNKSt6vectorIfSaIfEE4dataEv(ptr noundef nonnull align 8 dereferenceable(24) %7) #15
  call void @_ZN3gmx12ArrayRefIterIKfEC2EPS1_(ptr noundef nonnull align 8 dereferenceable(8) %6, ptr noundef %8) #15
  %9 = getelementptr inbounds %"class.gmx::ArrayRef", ptr %5, i32 0, i32 1
  %10 = load ptr, ptr %4, align 8
  %11 = call noundef ptr @_ZNKSt6vectorIfSaIfEE4dataEv(ptr noundef nonnull align 8 dereferenceable(24) %10) #15
  %12 = load ptr, ptr %4, align 8
  %13 = call noundef i64 @_ZNKSt6vectorIfSaIfEE4sizeEv(ptr noundef nonnull align 8 dereferenceable(24) %12) #15
  %14 = getelementptr inbounds float, ptr %11, i64 %13
  call void @_ZN3gmx12ArrayRefIterIKfEC2EPS1_(ptr noundef nonnull align 8 dereferenceable(8) %9, ptr noundef %14) #15
  ret void
}

; Function Attrs: mustprogress nounwind uwtable
define linkonce_odr noundef ptr @_ZNK3gmx7MDAtoms7mdatomsEv(ptr noundef nonnull align 8 dereferenceable(88) %0) #1 comdat align 2 {
  %2 = alloca ptr, align 8
  store ptr %0, ptr %2, align 8
  %3 = load ptr, ptr %2, align 8
  %4 = getelementptr inbounds %"class.gmx::MDAtoms", ptr %3, i32 0, i32 0
  %5 = call noundef ptr @_ZNKSt10unique_ptrI9t_mdatomsSt14default_deleteIS0_EE3getEv(ptr noundef nonnull align 8 dereferenceable(8) %4) #15
  ret ptr %5
}

; Function Attrs: mustprogress uwtable
define void @_ZN3gmx11PullElement12elementSetupEv(ptr noundef nonnull align 8 dereferenceable(96) %0) unnamed_addr #0 align 2 {
  %2 = alloca ptr, align 8
  %3 = alloca %"class.gmx::ArrayRef", align 8
  %4 = alloca %"class.gmx::ArrayRef.17", align 8
  %5 = alloca %"class.gmx::ArrayRefWithPadding", align 8
  %6 = alloca %"class.std::optional.82", align 8
  store ptr %0, ptr %2, align 8
  %7 = load ptr, ptr %2, align 8
  %8 = getelementptr inbounds %"class.gmx::PullElement", ptr %7, i32 0, i32 2
  %9 = load i8, ptr %8, align 8
  %10 = trunc i8 %9 to i1
  br i1 %10, label %11, label %44

11:                                               ; preds = %1
  %12 = getelementptr inbounds %"class.gmx::PullElement", ptr %7, i32 0, i32 5
  %13 = load i8, ptr %12, align 8
  %14 = trunc i8 %13 to i1
  br i1 %14, label %44, label %15

15:                                               ; preds = %11
  %16 = getelementptr inbounds %"class.gmx::PullElement", ptr %7, i32 0, i32 8
  %17 = load ptr, ptr %16, align 8
  %18 = getelementptr inbounds %"class.gmx::PullElement", ptr %7, i32 0, i32 7
  %19 = load ptr, ptr %18, align 8
  %20 = getelementptr inbounds %"class.gmx::PullElement", ptr %7, i32 0, i32 9
  %21 = load ptr, ptr %20, align 8
  %22 = call noundef ptr @_ZNK3gmx7MDAtoms7mdatomsEv(ptr noundef nonnull align 8 dereferenceable(88) %21)
  %23 = getelementptr inbounds %struct.t_mdatoms, ptr %22, i32 0, i32 15
  call void @_ZN3gmx8ArrayRefIKfEC2IRKSt6vectorIfSaIfEEvEEOT_(ptr noundef nonnull align 8 dereferenceable(16) %3, ptr noundef nonnull align 8 dereferenceable(24) %23)
  %24 = getelementptr inbounds %"class.gmx::PullElement", ptr %7, i32 0, i32 6
  %25 = load ptr, ptr %24, align 8
  call void @_ZNK3gmx19StatePropagatorData18constPositionsViewEv(ptr dead_on_unwind writable sret(%"class.gmx::ArrayRefWithPadding") align 8 %5, ptr noundef nonnull align 8 dereferenceable(632) %25)
  %26 = call { ptr, ptr } @_ZN3gmx19ArrayRefWithPaddingIKNS_11BasicVectorIfEEE16unpaddedArrayRefEv(ptr noundef nonnull align 8 dereferenceable(24) %5)
  %27 = getelementptr inbounds { ptr, ptr }, ptr %4, i32 0, i32 0
  %28 = extractvalue { ptr, ptr } %26, 0
  store ptr %28, ptr %27, align 8
  %29 = getelementptr inbounds { ptr, ptr }, ptr %4, i32 0, i32 1
  %30 = extractvalue { ptr, ptr } %26, 1
  store ptr %30, ptr %29, align 8
  %31 = getelementptr inbounds %"class.gmx::PullElement", ptr %7, i32 0, i32 6
  %32 = load ptr, ptr %31, align 8
  %33 = call noundef ptr @_ZNK3gmx19StatePropagatorData8constBoxEv(ptr noundef nonnull align 8 dereferenceable(632) %32)
  %34 = getelementptr inbounds %"class.gmx::PullElement", ptr %7, i32 0, i32 3
  %35 = load i32, ptr %34, align 4
  call void @_ZNSt8optionalIN3gmx8ArrayRefIdEEEC2ESt9nullopt_t(ptr noundef nonnull align 8 dereferenceable(24) %6) #15
  %36 = getelementptr inbounds { ptr, ptr }, ptr %3, i32 0, i32 0
  %37 = load ptr, ptr %36, align 8
  %38 = getelementptr inbounds { ptr, ptr }, ptr %3, i32 0, i32 1
  %39 = load ptr, ptr %38, align 8
  %40 = getelementptr inbounds { ptr, ptr }, ptr %4, i32 0, i32 0
  %41 = load ptr, ptr %40, align 8
  %42 = getelementptr inbounds { ptr, ptr }, ptr %4, i32 0, i32 1
  %43 = load ptr, ptr %42, align 8
  call void @_Z35preparePrevStepPullComNewSimulationPK9t_commrecP6pull_tN3gmx8ArrayRefIKfEENS5_IKNS4_11BasicVectorIfEEEEPA3_S6_7PbcTypeOSt8optionalINS5_IdEEE(ptr noundef %17, ptr noundef %19, ptr %37, ptr %39, ptr %41, ptr %43, ptr noundef %33, i32 noundef %35, ptr noundef nonnull align 8 dereferenceable(24) %6)
  br label %44

44:                                               ; preds = %15, %11, %1
  ret void
}