; Function Attrs: mustprogress uwtable
define void @_ZN3gmx11PullElement12elementSetupEv(ptr nocapture noundef nonnull readonly align 8 dereferenceable(96) %0) unnamed_addr #0 align 2 {
  %2 = alloca %"class.gmx::ArrayRefWithPadding", align 8
  %3 = alloca %"class.std::optional.82", align 8
  %4 = getelementptr inbounds i8, ptr %0, i64 16
  %5 = load i8, ptr %4, align 8
  %6 = trunc i8 %5 to i1
  br i1 %6, label %7, label %37

7:                                                ; preds = %1
  %8 = getelementptr inbounds i8, ptr %0, i64 56
  %9 = load i8, ptr %8, align 8
  %10 = trunc i8 %9 to i1
  br i1 %10, label %37, label %11

11:                                               ; preds = %7
  %12 = getelementptr inbounds i8, ptr %0, i64 80
  %13 = load ptr, ptr %12, align 8
  %14 = getelementptr inbounds i8, ptr %0, i64 72
  %15 = load ptr, ptr %14, align 8
  %16 = getelementptr inbounds i8, ptr %0, i64 88
  %17 = load ptr, ptr %16, align 8
  %18 = load ptr, ptr %17, align 8
  %19 = getelementptr inbounds i8, ptr %18, i64 96
  %20 = load ptr, ptr %19, align 8
  %21 = getelementptr inbounds i8, ptr %18, i64 104
  %22 = load ptr, ptr %21, align 8
  %23 = ptrtoint ptr %22 to i64
  %24 = ptrtoint ptr %20 to i64
  %25 = sub i64 %23, %24
  %26 = getelementptr inbounds i8, ptr %20, i64 %25
  %27 = getelementptr inbounds i8, ptr %0, i64 64
  %28 = load ptr, ptr %27, align 8
  call void @_ZNK3gmx19StatePropagatorData18constPositionsViewEv(ptr dead_on_unwind nonnull writable sret(%"class.gmx::ArrayRefWithPadding") align 8 %2, ptr noundef nonnull align 8 dereferenceable(632) %28)
  %29 = load ptr, ptr %2, align 8
  %30 = getelementptr inbounds i8, ptr %2, i64 8
  %31 = load ptr, ptr %30, align 8
  %32 = load ptr, ptr %27, align 8
  %33 = call noundef ptr @_ZNK3gmx19StatePropagatorData8constBoxEv(ptr noundef nonnull align 8 dereferenceable(632) %32)
  %34 = getelementptr inbounds i8, ptr %0, i64 20
  %35 = load i32, ptr %34, align 4
  %36 = getelementptr inbounds i8, ptr %3, i64 16
  store i8 0, ptr %36, align 8
  call void @_Z35preparePrevStepPullComNewSimulationPK9t_commrecP6pull_tN3gmx8ArrayRefIKfEENS5_IKNS4_11BasicVectorIfEEEEPA3_S6_7PbcTypeOSt8optionalINS5_IdEEE(ptr noundef %13, ptr noundef %15, ptr %20, ptr %26, ptr %29, ptr %31, ptr noundef %33, i32 noundef %35, ptr noundef nonnull align 8 dereferenceable(24) %3)
  br label %37

37:                                               ; preds = %11, %7, %1
  ret void
}